target datalayout = "e-m:e-p270:32:32-p271:32:32-p272:64:64-i64:64-i128:128-f80:128-n8:16:32:64-S128"
target triple = "x86_64-pc-linux-gnu"

%struct.Dar_RwrPar_t_ = type { i32, i32, i32, i32, i32, i32, i32, i32, i32, i32 }
%struct.Dar_RefPar_t_ = type { i32, i32, i32, i32, i32, i32, i32, i32 }

@.str = private unnamed_addr constant [12 x i8] c"Starting:  \00", align 1
@.str.1 = private unnamed_addr constant [12 x i8] c"Balance:   \00", align 1
@.str.2 = private unnamed_addr constant [12 x i8] c"Rewrite:   \00", align 1
@.str.3 = private unnamed_addr constant [12 x i8] c"Refactor:  \00", align 1
@.str.4 = private unnamed_addr constant [12 x i8] c"RewriteZ:  \00", align 1
@.str.5 = private unnamed_addr constant [12 x i8] c"RefactorZ: \00", align 1

; Function Attrs: nounwind uwtable
define ptr @Dar_ManCompress2(ptr noundef %0, i32 noundef %1, i32 noundef %2, i32 noundef %3, i32 noundef %4, i32 noundef %5) #0 {
  %7 = alloca ptr, align 8
  %8 = alloca i32, align 4
  %9 = alloca i32, align 4
  %10 = alloca i32, align 4
  %11 = alloca i32, align 4
  %12 = alloca i32, align 4
  %13 = alloca ptr, align 8
  %14 = alloca %struct.Dar_RwrPar_t_, align 4
  %15 = alloca ptr, align 8
  %16 = alloca %struct.Dar_RefPar_t_, align 4
  %17 = alloca ptr, align 8
  store ptr %0, ptr %7, align 8, !tbaa !3
  store i32 %1, ptr %8, align 4, !tbaa !10
  store i32 %2, ptr %9, align 4, !tbaa !10
  store i32 %3, ptr %10, align 4, !tbaa !10
  store i32 %4, ptr %11, align 4, !tbaa !10
  store i32 %5, ptr %12, align 4, !tbaa !10
  call void @llvm.lifetime.start.p0(i64 8, ptr %13) #9
  call void @llvm.lifetime.start.p0(i64 40, ptr %14) #9
  call void @llvm.lifetime.start.p0(i64 8, ptr %15) #9
  store ptr %14, ptr %15, align 8, !tbaa !8
  call void @llvm.lifetime.start.p0(i64 32, ptr %16) #9
  call void @llvm.lifetime.start.p0(i64 8, ptr %17) #9
  store ptr %16, ptr %17, align 8, !tbaa !26
  %18 = load ptr, ptr %15, align 8, !tbaa !8
  call void @Dar_ManDefaultRwrParams(ptr noundef %18)
  %19 = load ptr, ptr %17, align 8, !tbaa !26
  call void @Dar_ManDefaultRefParams(ptr noundef %19)
  %20 = load i32, ptr %9, align 4, !tbaa !10
  %21 = load ptr, ptr %15, align 8, !tbaa !8
  %22 = getelementptr inbounds nuw %struct.Dar_RwrPar_t_, ptr %21, i32 0, i32 4
  store i32 %20, ptr %22, align 4, !tbaa !28
  %23 = load i32, ptr %9, align 4, !tbaa !10
  %24 = load ptr, ptr %17, align 8, !tbaa !26
  %25 = getelementptr inbounds nuw %struct.Dar_RefPar_t_, ptr %24, i32 0, i32 4
  store i32 %23, ptr %25, align 4, !tbaa !30
  %26 = load i32, ptr %10, align 4, !tbaa !10
  %27 = load ptr, ptr %15, align 8, !tbaa !8
  %28 = getelementptr inbounds nuw %struct.Dar_RwrPar_t_, ptr %27, i32 0, i32 3
  store i32 %26, ptr %28, align 4, !tbaa !37
  %29 = load i32, ptr %11, align 4, !tbaa !10
  %30 = load ptr, ptr %15, align 8, !tbaa !8
  %31 = getelementptr inbounds nuw %struct.Dar_RwrPar_t_, ptr %30, i32 0, i32 6
  store i32 %29, ptr %31, align 4, !tbaa !34
  %32 = load ptr, ptr %15, align 8, !tbaa !8
  %33 = getelementptr inbounds nuw %struct.Dar_RwrPar_t_, ptr %32, i32 0, i32 8
  store i32 0, ptr %33, align 4, !tbaa !32
  %34 = load ptr, ptr %17, align 8, !tbaa !26
  %35 = getelementptr inbounds nuw %struct.Dar_RefPar_t_, ptr %34, i32 0, i32 6
  store i32 0, ptr %35, align 4, !tbaa !33
  %36 = load ptr, ptr %7, align 8, !tbaa !3
  %37 = call ptr @Aig_ManDupDfs(ptr noundef %36)
  store ptr %37, ptr %7, align 8, !tbaa !3
  %38 = load i32, ptr %12, align 4, !tbaa !10
  %39 = icmp ne i32 %38, 0
  br i1 %39, label %40, label %43

40:                                               ; preds = %6
  %41 = call i32 (ptr, ...) @printf(ptr noundef @.str)
  %42 = load ptr, ptr %7, align 8, !tbaa !3
  call void @Aig_ManPrintStats(ptr noundef %42)
  br label %43

43:                                               ; preds = %40, %6
  %44 = load ptr, ptr %15, align 8, !tbaa !8
  %45 = getelementptr inbounds nuw %struct.Dar_RwrPar_t_, ptr %44, i32 0, i32 4
  store i32 0, ptr %45, align 4, !tbaa !28
  %46 = load ptr, ptr %7, align 8, !tbaa !3
  %47 = load ptr, ptr %15, align 8, !tbaa !8
  %48 = call i32 @Dar_ManRewrite(ptr noundef %46, ptr noundef %47)
  %49 = load i32, ptr %9, align 4, !tbaa !10
  %50 = load ptr, ptr %15, align 8, !tbaa !8
  %51 = getelementptr inbounds nuw %struct.Dar_RwrPar_t_, ptr %50, i32 0, i32 4
  store i32 %49, ptr %51, align 4, !tbaa !28
  %52 = load ptr, ptr %7, align 8, !tbaa !3
  store ptr %52, ptr %13, align 8, !tbaa !3
  %53 = call ptr @Aig_ManDupDfs(ptr noundef %52)
  store ptr %53, ptr %7, align 8, !tbaa !3
  %54 = load ptr, ptr %13, align 8, !tbaa !3
  call void @Aig_ManStop(ptr noundef %54)
  %55 = load i32, ptr %12, align 4, !tbaa !10
  %56 = icmp ne i32 %55, 0
  br i1 %56, label %57, label %60

57:                                               ; preds = %43
  %58 = call i32 (ptr, ...) @printf(ptr noundef @.str.2)
  %59 = load ptr, ptr %7, align 8, !tbaa !3
  call void @Aig_ManPrintStats(ptr noundef %59)
  br label %60

60:                                               ; preds = %57, %43
  %61 = load ptr, ptr %7, align 8, !tbaa !3
  %62 = load ptr, ptr %17, align 8, !tbaa !26
  %63 = call i32 @Dar_ManRefactor(ptr noundef %61, ptr noundef %62)
  %64 = load ptr, ptr %7, align 8, !tbaa !3
  store ptr %64, ptr %13, align 8, !tbaa !3
  %65 = call ptr @Aig_ManDupDfs(ptr noundef %64)
  store ptr %65, ptr %7, align 8, !tbaa !3
  %66 = load ptr, ptr %13, align 8, !tbaa !3
  call void @Aig_ManStop(ptr noundef %66)
  %67 = load i32, ptr %12, align 4, !tbaa !10
  %68 = icmp ne i32 %67, 0
  br i1 %68, label %69, label %72

69:                                               ; preds = %60
  %70 = call i32 (ptr, ...) @printf(ptr noundef @.str.3)
  %71 = load ptr, ptr %7, align 8, !tbaa !3
  call void @Aig_ManPrintStats(ptr noundef %71)
  br label %72

72:                                               ; preds = %69, %60
  %73 = load ptr, ptr %7, align 8, !tbaa !3
  store ptr %73, ptr %13, align 8, !tbaa !3
  %74 = load i32, ptr %9, align 4, !tbaa !10
  %75 = call ptr @Dar_ManBalance(ptr noundef %73, i32 noundef %74)
  store ptr %75, ptr %7, align 8, !tbaa !3
  %76 = load ptr, ptr %13, align 8, !tbaa !3
  call void @Aig_ManStop(ptr noundef %76)
  %77 = load i32, ptr %12, align 4, !tbaa !10
  %78 = icmp ne i32 %77, 0
  br i1 %78, label %79, label %82

79:                                               ; preds = %72
  %80 = call i32 (ptr, ...) @printf(ptr noundef @.str.1)
  %81 = load ptr, ptr %7, align 8, !tbaa !3
  call void @Aig_ManPrintStats(ptr noundef %81)
  br label %82

82:                                               ; preds = %79, %72
  %83 = load ptr, ptr %7, align 8, !tbaa !3
  %84 = load ptr, ptr %15, align 8, !tbaa !8
  %85 = call i32 @Dar_ManRewrite(ptr noundef %83, ptr noundef %84)
  %86 = load ptr, ptr %7, align 8, !tbaa !3
  store ptr %86, ptr %13, align 8, !tbaa !3
  %87 = call ptr @Aig_ManDupDfs(ptr noundef %86)
  store ptr %87, ptr %7, align 8, !tbaa !3
  %88 = load ptr, ptr %13, align 8, !tbaa !3
  call void @Aig_ManStop(ptr noundef %88)
  %89 = load i32, ptr %12, align 4, !tbaa !10
  %90 = icmp ne i32 %89, 0
  br i1 %90, label %91, label %94

91:                                               ; preds = %82
  %92 = call i32 (ptr, ...) @printf(ptr noundef @.str.2)
  %93 = load ptr, ptr %7, align 8, !tbaa !3
  call void @Aig_ManPrintStats(ptr noundef %93)
  br label %94

94:                                               ; preds = %91, %82
  %95 = load ptr, ptr %15, align 8, !tbaa !8
  %96 = getelementptr inbounds nuw %struct.Dar_RwrPar_t_, ptr %95, i32 0, i32 5
  store i32 1, ptr %96, align 4, !tbaa !35
  %97 = load ptr, ptr %17, align 8, !tbaa !26
  %98 = getelementptr inbounds nuw %struct.Dar_RefPar_t_, ptr %97, i32 0, i32 5
  store i32 1, ptr %98, align 4, !tbaa !36
  %99 = load ptr, ptr %7, align 8, !tbaa !3
  %100 = load ptr, ptr %15, align 8, !tbaa !8
  %101 = call i32 @Dar_ManRewrite(ptr noundef %99, ptr noundef %100)
  %102 = load ptr, ptr %7, align 8, !tbaa !3
  store ptr %102, ptr %13, align 8, !tbaa !3
  %103 = call ptr @Aig_ManDupDfs(ptr noundef %102)
  store ptr %103, ptr %7, align 8, !tbaa !3
  %104 = load ptr, ptr %13, align 8, !tbaa !3
  call void @Aig_ManStop(ptr noundef %104)
  %105 = load i32, ptr %12, align 4, !tbaa !10
  %106 = icmp ne i32 %105, 0
  br i1 %106, label %107, label %110

107:                                              ; preds = %94
  %108 = call i32 (ptr, ...) @printf(ptr noundef @.str.4)
  %109 = load ptr, ptr %7, align 8, !tbaa !3
  call void @Aig_ManPrintStats(ptr noundef %109)
  br label %110

110:                                              ; preds = %107, %94
  %111 = load i32, ptr %8, align 4, !tbaa !10
  %112 = icmp ne i32 %111, 0
  br i1 %112, label %113, label %124

113:                                              ; preds = %110
  %114 = load ptr, ptr %7, align 8, !tbaa !3
  store ptr %114, ptr %13, align 8, !tbaa !3
  %115 = load i32, ptr %9, align 4, !tbaa !10
  %116 = call ptr @Dar_ManBalance(ptr noundef %114, i32 noundef %115)
  store ptr %116, ptr %7, align 8, !tbaa !3
  %117 = load ptr, ptr %13, align 8, !tbaa !3
  call void @Aig_ManStop(ptr noundef %117)
  %118 = load i32, ptr %12, align 4, !tbaa !10
  %119 = icmp ne i32 %118, 0
  br i1 %119, label %120, label %123

120:                                              ; preds = %113
  %121 = call i32 (ptr, ...) @printf(ptr noundef @.str.1)
  %122 = load ptr, ptr %7, align 8, !tbaa !3
  call void @Aig_ManPrintStats(ptr noundef %122)
  br label %123

123:                                              ; preds = %120, %113
  br label %124

124:                                              ; preds = %123, %110
  %125 = load ptr, ptr %7, align 8, !tbaa !3
  %126 = load ptr, ptr %17, align 8, !tbaa !26
  %127 = call i32 @Dar_ManRefactor(ptr noundef %125, ptr noundef %126)
  %128 = load ptr, ptr %7, align 8, !tbaa !3
  store ptr %128, ptr %13, align 8, !tbaa !3
  %129 = call ptr @Aig_ManDupDfs(ptr noundef %128)
  store ptr %129, ptr %7, align 8, !tbaa !3
  %130 = load ptr, ptr %13, align 8, !tbaa !3
  call void @Aig_ManStop(ptr noundef %130)
  %131 = load i32, ptr %12, align 4, !tbaa !10
  %132 = icmp ne i32 %131, 0
  br i1 %132, label %133, label %136

133:                                              ; preds = %124
  %134 = call i32 (ptr, ...) @printf(ptr noundef @.str.5)
  %135 = load ptr, ptr %7, align 8, !tbaa !3
  call void @Aig_ManPrintStats(ptr noundef %135)
  br label %136

136:                                              ; preds = %133, %124
  %137 = load ptr, ptr %7, align 8, !tbaa !3
  %138 = load ptr, ptr %15, align 8, !tbaa !8
  %139 = call i32 @Dar_ManRewrite(ptr noundef %137, ptr noundef %138)
  %140 = load ptr, ptr %7, align 8, !tbaa !3
  store ptr %140, ptr %13, align 8, !tbaa !3
  %141 = call ptr @Aig_ManDupDfs(ptr noundef %140)
  store ptr %141, ptr %7, align 8, !tbaa !3
  %142 = load ptr, ptr %13, align 8, !tbaa !3
  call void @Aig_ManStop(ptr noundef %142)
  %143 = load i32, ptr %12, align 4, !tbaa !10
  %144 = icmp ne i32 %143, 0
  br i1 %144, label %145, label %148

145:                                              ; preds = %136
  %146 = call i32 (ptr, ...) @printf(ptr noundef @.str.4)
  %147 = load ptr, ptr %7, align 8, !tbaa !3
  call void @Aig_ManPrintStats(ptr noundef %147)
  br label %148

148:                                              ; preds = %145, %136
  %149 = load i32, ptr %8, align 4, !tbaa !10
  %150 = icmp ne i32 %149, 0
  br i1 %150, label %151, label %162

151:                                              ; preds = %148
  %152 = load ptr, ptr %7, align 8, !tbaa !3
  store ptr %152, ptr %13, align 8, !tbaa !3
  %153 = load i32, ptr %9, align 4, !tbaa !10
  %154 = call ptr @Dar_ManBalance(ptr noundef %152, i32 noundef %153)
  store ptr %154, ptr %7, align 8, !tbaa !3
  %155 = load ptr, ptr %13, align 8, !tbaa !3
  call void @Aig_ManStop(ptr noundef %155)
  %156 = load i32, ptr %12, align 4, !tbaa !10
  %157 = icmp ne i32 %156, 0
  br i1 %157, label %158, label %161

158:                                              ; preds = %151
  %159 = call i32 (ptr, ...) @printf(ptr noundef @.str.1)
  %160 = load ptr, ptr %7, align 8, !tbaa !3
  call void @Aig_ManPrintStats(ptr noundef %160)
  br label %161

161:                                              ; preds = %158, %151
  br label %162

162:                                              ; preds = %161, %148
  %163 = load ptr, ptr %7, align 8, !tbaa !3
  call void @llvm.lifetime.end.p0(i64 8, ptr %17) #9
  call void @llvm.lifetime.end.p0(i64 32, ptr %16) #9
  call void @llvm.lifetime.end.p0(i64 8, ptr %15) #9
  call void @llvm.lifetime.end.p0(i64 40, ptr %14) #9
  call void @llvm.lifetime.end.p0(i64 8, ptr %13) #9
  ret ptr %163
}