; Function Attrs: nounwind uwtable
define ptr @Dar_ManCompress2(ptr noundef %0, i32 noundef %1, i32 noundef %2, i32 noundef %3, i32 noundef %4, i32 noundef %5) local_unnamed_addr #0 {
  %7 = alloca %struct.Dar_RwrPar_t_, align 4
  %8 = alloca %struct.Dar_RefPar_t_, align 4
  call void @llvm.lifetime.start.p0(i64 40, ptr nonnull %7) #13
  call void @llvm.lifetime.start.p0(i64 32, ptr nonnull %8) #13
  call void @Dar_ManDefaultRwrParams(ptr noundef nonnull %7) #13
  call void @Dar_ManDefaultRefParams(ptr noundef nonnull %8) #13
  %9 = getelementptr inbounds nuw i8, ptr %7, i64 16
  store i32 %2, ptr %9, align 4, !tbaa !21
  %10 = getelementptr inbounds nuw i8, ptr %8, i64 16
  store i32 %2, ptr %10, align 4, !tbaa !23
  %11 = getelementptr inbounds nuw i8, ptr %7, i64 12
  store i32 %3, ptr %11, align 4, !tbaa !33
  %12 = getelementptr inbounds nuw i8, ptr %7, i64 24
  store i32 %4, ptr %12, align 4, !tbaa !30
  %13 = getelementptr inbounds nuw i8, ptr %7, i64 32
  store i32 0, ptr %13, align 4, !tbaa !25
  %14 = getelementptr inbounds nuw i8, ptr %8, i64 24
  store i32 0, ptr %14, align 4, !tbaa !26
  %15 = call ptr @Aig_ManDupDfs(ptr noundef %0) #13
  %.not = icmp eq i32 %5, 0
  br i1 %.not, label %18, label %16

16:                                               ; preds = %6
  %17 = call i32 (ptr, ...) @printf(ptr noundef nonnull dereferenceable(1) @.str)
  call void @Aig_ManPrintStats(ptr noundef %15) #13
  br label %18

18:                                               ; preds = %16, %6
  store i32 0, ptr %9, align 4, !tbaa !21
  %19 = call i32 @Dar_ManRewrite(ptr noundef %15, ptr noundef nonnull %7) #13
  store i32 %2, ptr %9, align 4, !tbaa !21
  %20 = call ptr @Aig_ManDupDfs(ptr noundef %15) #13
  call void @Aig_ManStop(ptr noundef %15) #13
  br i1 %.not, label %23, label %21

21:                                               ; preds = %18
  %22 = call i32 (ptr, ...) @printf(ptr noundef nonnull dereferenceable(1) @.str.2)
  call void @Aig_ManPrintStats(ptr noundef %20) #13
  br label %23

23:                                               ; preds = %21, %18
  %24 = call i32 @Dar_ManRefactor(ptr noundef %20, ptr noundef nonnull %8) #13
  %25 = call ptr @Aig_ManDupDfs(ptr noundef %20) #13
  call void @Aig_ManStop(ptr noundef %20) #13
  br i1 %.not, label %28, label %26

26:                                               ; preds = %23
  %27 = call i32 (ptr, ...) @printf(ptr noundef nonnull dereferenceable(1) @.str.3)
  call void @Aig_ManPrintStats(ptr noundef %25) #13
  br label %28

28:                                               ; preds = %26, %23
  %29 = call ptr @Dar_ManBalance(ptr noundef %25, i32 noundef %2) #13
  call void @Aig_ManStop(ptr noundef %25) #13
  br i1 %.not, label %32, label %30

30:                                               ; preds = %28
  %31 = call i32 (ptr, ...) @printf(ptr noundef nonnull dereferenceable(1) @.str.1)
  call void @Aig_ManPrintStats(ptr noundef %29) #13
  br label %32

32:                                               ; preds = %30, %28
  %33 = call i32 @Dar_ManRewrite(ptr noundef %29, ptr noundef nonnull %7) #13
  %34 = call ptr @Aig_ManDupDfs(ptr noundef %29) #13
  call void @Aig_ManStop(ptr noundef %29) #13
  br i1 %.not, label %37, label %35

35:                                               ; preds = %32
  %36 = call i32 (ptr, ...) @printf(ptr noundef nonnull dereferenceable(1) @.str.2)
  call void @Aig_ManPrintStats(ptr noundef %34) #13
  br label %37

37:                                               ; preds = %35, %32
  %38 = getelementptr inbounds nuw i8, ptr %7, i64 20
  store i32 1, ptr %38, align 4, !tbaa !31
  %39 = getelementptr inbounds nuw i8, ptr %8, i64 20
  store i32 1, ptr %39, align 4, !tbaa !32
  %40 = call i32 @Dar_ManRewrite(ptr noundef %34, ptr noundef nonnull %7) #13
  %41 = call ptr @Aig_ManDupDfs(ptr noundef %34) #13
  call void @Aig_ManStop(ptr noundef %34) #13
  br i1 %.not, label %44, label %42

42:                                               ; preds = %37
  %43 = call i32 (ptr, ...) @printf(ptr noundef nonnull dereferenceable(1) @.str.4)
  call void @Aig_ManPrintStats(ptr noundef %41) #13
  br label %44

44:                                               ; preds = %42, %37
  %.not73 = icmp eq i32 %1, 0
  br i1 %.not73, label %49, label %45

45:                                               ; preds = %44
  %46 = call ptr @Dar_ManBalance(ptr noundef %41, i32 noundef %2) #13
  call void @Aig_ManStop(ptr noundef %41) #13
  br i1 %.not, label %49, label %47

47:                                               ; preds = %45
  %48 = call i32 (ptr, ...) @printf(ptr noundef nonnull dereferenceable(1) @.str.1)
  call void @Aig_ManPrintStats(ptr noundef %46) #13
  br label %49

49:                                               ; preds = %45, %47, %44
  %.0 = phi ptr [ %46, %47 ], [ %46, %45 ], [ %41, %44 ]
  %50 = call i32 @Dar_ManRefactor(ptr noundef %.0, ptr noundef nonnull %8) #13
  %51 = call ptr @Aig_ManDupDfs(ptr noundef %.0) #13
  call void @Aig_ManStop(ptr noundef %.0) #13
  br i1 %.not, label %54, label %52

52:                                               ; preds = %49
  %53 = call i32 (ptr, ...) @printf(ptr noundef nonnull dereferenceable(1) @.str.5)
  call void @Aig_ManPrintStats(ptr noundef %51) #13
  br label %54

54:                                               ; preds = %52, %49
  %55 = call i32 @Dar_ManRewrite(ptr noundef %51, ptr noundef nonnull %7) #13
  %56 = call ptr @Aig_ManDupDfs(ptr noundef %51) #13
  call void @Aig_ManStop(ptr noundef %51) #13
  br i1 %.not, label %59, label %57

57:                                               ; preds = %54
  %58 = call i32 (ptr, ...) @printf(ptr noundef nonnull dereferenceable(1) @.str.4)
  call void @Aig_ManPrintStats(ptr noundef %56) #13
  br label %59

59:                                               ; preds = %57, %54
  br i1 %.not73, label %64, label %60

60:                                               ; preds = %59
  %61 = call ptr @Dar_ManBalance(ptr noundef %56, i32 noundef %2) #13
  call void @Aig_ManStop(ptr noundef %56) #13
  br i1 %.not, label %64, label %62

62:                                               ; preds = %60
  %63 = call i32 (ptr, ...) @printf(ptr noundef nonnull dereferenceable(1) @.str.1)
  call void @Aig_ManPrintStats(ptr noundef %61) #13
  br label %64

64:                                               ; preds = %60, %62, %59
  %.1 = phi ptr [ %61, %62 ], [ %61, %60 ], [ %56, %59 ]
  call void @llvm.lifetime.end.p0(i64 32, ptr nonnull %8) #13
  call void @llvm.lifetime.end.p0(i64 40, ptr nonnull %7) #13
  ret ptr %.1
}